CCS PCM C Compiler, Version 5.007, 61971               03-abr-24 20:18

               Filename:   C:\Users\gerle\OneDrive\Documentos\CCS C Projects\Prova 2\Questão 3\Questão_3.lst

               ROM used:   86 words (4%)
                           Largest free fragment is 1962
               RAM used:   6 (3%) at main() level
                           6 (3%) worst case
               Stack used: 0 locations
               Stack size: 8

*
0000:  MOVLW  00
0001:  MOVWF  0A
0002:  GOTO   004
0003:  NOP
.................... // EXEMPLO  03. SEM?FORO SIMPLES 
....................  
.................... #include <16f628a.h> 
.................... //////// Standard Header file for the PIC16F628A device //////////////// 
.................... #device PIC16F628A 
....................  
.................... #list 
....................  
.................... #use delay(clock=400000) 
.................... #fuses INTRC_IO,NOWDT,PUT,BROWNOUT,NOLVP,NOMCLR 
....................  
.................... void main(){  
0004:  MOVLW  07
0005:  MOVWF  1F
0006:  BCF    03.7
0007:  MOVLW  1F
0008:  ANDWF  03,F
....................  
....................    while(true){ 
....................       if(input(pin_a0) == 1){ 
0009:  BSF    03.5
000A:  BSF    05.0
000B:  BCF    03.5
000C:  BTFSS  05.0
000D:  GOTO   022
....................          //Rotaciona os motores 
....................          output_low(pin_b0); 
000E:  BSF    03.5
000F:  BCF    06.0
0010:  BCF    03.5
0011:  BCF    06.0
....................          output_high(pin_b1); 
0012:  BSF    03.5
0013:  BCF    06.1
0014:  BCF    03.5
0015:  BSF    06.1
....................          output_high(pin_b2); 
0016:  BSF    03.5
0017:  BCF    06.2
0018:  BCF    03.5
0019:  BSF    06.2
....................          output_low(pin_b3); 
001A:  BSF    03.5
001B:  BCF    06.3
001C:  BCF    03.5
001D:  BCF    06.3
....................          output_high(pin_b4); 
001E:  BSF    03.5
001F:  BCF    06.4
0020:  BCF    03.5
0021:  BSF    06.4
....................       } 
....................       if(input(pin_a1) == 1){ 
0022:  BSF    03.5
0023:  BSF    05.1
0024:  BCF    03.5
0025:  BTFSS  05.1
0026:  GOTO   03B
....................          //Rotaciona os motores   
....................          output_high(pin_b0); 
0027:  BSF    03.5
0028:  BCF    06.0
0029:  BCF    03.5
002A:  BSF    06.0
....................          output_low(pin_b1); 
002B:  BSF    03.5
002C:  BCF    06.1
002D:  BCF    03.5
002E:  BCF    06.1
....................          output_high(pin_b2); 
002F:  BSF    03.5
0030:  BCF    06.2
0031:  BCF    03.5
0032:  BSF    06.2
....................          output_high(pin_b3); 
0033:  BSF    03.5
0034:  BCF    06.3
0035:  BCF    03.5
0036:  BSF    06.3
....................          output_low(pin_b4); 
0037:  BSF    03.5
0038:  BCF    06.4
0039:  BCF    03.5
003A:  BCF    06.4
....................       } 
....................       if(input(pin_a2) == 1){ 
003B:  BSF    03.5
003C:  BSF    05.2
003D:  BCF    03.5
003E:  BTFSS  05.2
003F:  GOTO   054
....................           
....................          //Rotaciona os motores 
....................          output_low(pin_b0); 
0040:  BSF    03.5
0041:  BCF    06.0
0042:  BCF    03.5
0043:  BCF    06.0
....................          output_high(pin_b1); 
0044:  BSF    03.5
0045:  BCF    06.1
0046:  BCF    03.5
0047:  BSF    06.1
....................          output_high(pin_b2); 
0048:  BSF    03.5
0049:  BCF    06.2
004A:  BCF    03.5
004B:  BSF    06.2
....................          output_high(pin_b3); 
004C:  BSF    03.5
004D:  BCF    06.3
004E:  BCF    03.5
004F:  BSF    06.3
....................          output_low(pin_b4); 
0050:  BSF    03.5
0051:  BCF    06.4
0052:  BCF    03.5
0053:  BCF    06.4
....................       } 
0054:  GOTO   009
....................    } 
.................... } 
....................  
0055:  SLEEP
....................  

Configuration Fuses:
   Word  1: 3F50   NOWDT PUT INTRC_IO NOMCLR BROWNOUT NOLVP NOCPD NOPROTECT
